; Function Attrs: nounwind uwtable
define noalias noundef ptr @cl_fmap_open_memory(ptr noundef %0, i64 noundef %1) local_unnamed_addr #0 {
  %3 = tail call i64 @sysconf(i32 noundef 30) #18
  %4 = tail call noalias dereferenceable_or_null(240) ptr @calloc(i64 noundef 1, i64 noundef 240) #19
  %.not33.i = icmp eq ptr %4, null
  br i1 %.not33.i, label %5, label %6

5:                                                ; preds = %2
  tail call void (ptr, ...) @cli_warnmsg(ptr noundef nonnull @.str.9) #18
  br label %fmap_open_memory.exit

6:                                                ; preds = %2
  %7 = getelementptr inbounds i8, ptr %4, i64 16
  store ptr %0, ptr %7, align 8
  %8 = getelementptr inbounds i8, ptr %4, i64 88
  store i64 %1, ptr %8, align 8
  %9 = getelementptr inbounds i8, ptr %4, i64 80
  store i64 %1, ptr %9, align 8
  %sext.i = shl i64 %3, 32
  %10 = ashr exact i64 %sext.i, 32
  %11 = getelementptr inbounds i8, ptr %4, i64 40
  store i64 %10, ptr %11, align 8
  %12 = udiv i64 %1, %10
  %13 = urem i64 %1, %10
  %14 = icmp ne i64 %13, 0
  %15 = zext i1 %14 to i64
  %16 = add i64 %12, %15
  %17 = getelementptr inbounds i8, ptr %4, i64 32
  store i64 %16, ptr %17, align 8
  %18 = getelementptr inbounds i8, ptr %4, i64 96
  store ptr @unmap_malloc, ptr %18, align 8
  %19 = getelementptr inbounds i8, ptr %4, i64 104
  store ptr @mem_need, ptr %19, align 8
  %20 = getelementptr inbounds i8, ptr %4, i64 112
  store ptr @mem_need_offstr, ptr %20, align 8
  %21 = getelementptr inbounds i8, ptr %4, i64 120
  store ptr @mem_gets, ptr %21, align 8
  %22 = getelementptr inbounds i8, ptr %4, i64 128
  store ptr @mem_unneed_off, ptr %22, align 8
  br label %fmap_open_memory.exit

fmap_open_memory.exit:                            ; preds = %5, %6
  ret ptr %4
}